; Function Attrs: mustprogress nofree norecurse nosync nounwind willreturn memory(argmem: read) uwtable
define internal nonnull ptr @"_ZNSt17_Function_handlerIF6symboliEZN6dimacslsERSoRKNS2_11drat_recordEE3$_0E9_M_invokeERKSt9_Any_dataOi"(ptr nocapture nonnull readnone align 8 %__functor, ptr nocapture noundef nonnull readonly align 4 dereferenceable(4) %__args) #11 align 2 {
entry:
  %__args.val = load i32, ptr %__args, align 4
  %conv.i.i.i.i = zext i32 %__args.val to i64
  %shl.i.i.i.i = shl nuw nsw i64 %conv.i.i.i.i, 3
  %or.i.i.i.i = or disjoint i64 %shl.i.i.i.i, 1
  %0 = inttoptr i64 %or.i.i.i.i to ptr
  ret ptr %0
}